target datalayout = "e-m:e-p270:32:32-p271:32:32-p272:64:64-i64:64-i128:128-f80:128-n8:16:32:64-S128"
target triple = "x86_64-pc-linux-gnu"

%struct.oidset = type { %struct.kh_oid_set }
%struct.kh_oid_set = type { i32, i32, i32, i32, ptr, ptr, ptr }
%struct.packed_git = type { %struct.hashmap_entry, ptr, %struct.list_head, ptr, i64, ptr, i64, i32, i64, %struct.oidset, i32, i64, i32, i32, i8, [32 x i8], ptr, ptr, ptr, i64, ptr, i64, ptr, [0 x i8] }
%struct.hashmap_entry = type { ptr, i32 }
%struct.list_head = type { ptr, ptr }
%struct.string_list_item = type { ptr, ptr }

; Function Attrs: nounwind uwtable
define internal i32 @pack_mtime_cmp(ptr noundef %0, ptr noundef %1) #0 {
  %3 = alloca i32, align 4
  %4 = alloca ptr, align 8
  %5 = alloca ptr, align 8
  %6 = alloca ptr, align 8
  %7 = alloca ptr, align 8
  %8 = alloca i32, align 4
  store ptr %0, ptr %4, align 8, !tbaa !134
  store ptr %1, ptr %5, align 8, !tbaa !134
  call void @llvm.lifetime.start.p0(i64 8, ptr %6) #11
  %9 = load ptr, ptr %4, align 8, !tbaa !134
  %10 = getelementptr inbounds nuw %struct.string_list_item, ptr %9, i32 0, i32 1
  %11 = load ptr, ptr %10, align 8, !tbaa !162
  store ptr %11, ptr %6, align 8, !tbaa !15
  call void @llvm.lifetime.start.p0(i64 8, ptr %7) #11
  %12 = load ptr, ptr %5, align 8, !tbaa !134
  %13 = getelementptr inbounds nuw %struct.string_list_item, ptr %12, i32 0, i32 1
  %14 = load ptr, ptr %13, align 8, !tbaa !162
  store ptr %14, ptr %7, align 8, !tbaa !15
  %15 = load ptr, ptr %6, align 8, !tbaa !15
  %16 = getelementptr inbounds nuw %struct.packed_git, ptr %15, i32 0, i32 11
  %17 = load i64, ptr %16, align 8, !tbaa !13
  %18 = load ptr, ptr %7, align 8, !tbaa !15
  %19 = getelementptr inbounds nuw %struct.packed_git, ptr %18, i32 0, i32 11
  %20 = load i64, ptr %19, align 8, !tbaa !13
  %21 = icmp slt i64 %17, %20
  br i1 %21, label %22, label %23

22:                                               ; preds = %2
  store i32 1, ptr %3, align 4
  store i32 1, ptr %8, align 4
  br label %33

23:                                               ; preds = %2
  %24 = load ptr, ptr %7, align 8, !tbaa !15
  %25 = getelementptr inbounds nuw %struct.packed_git, ptr %24, i32 0, i32 11
  %26 = load i64, ptr %25, align 8, !tbaa !13
  %27 = load ptr, ptr %6, align 8, !tbaa !15
  %28 = getelementptr inbounds nuw %struct.packed_git, ptr %27, i32 0, i32 11
  %29 = load i64, ptr %28, align 8, !tbaa !13
  %30 = icmp slt i64 %26, %29
  br i1 %30, label %31, label %32

31:                                               ; preds = %23
  store i32 -1, ptr %3, align 4
  store i32 1, ptr %8, align 4
  br label %33

32:                                               ; preds = %23
  store i32 0, ptr %3, align 4
  store i32 1, ptr %8, align 4
  br label %33

33:                                               ; preds = %32, %31, %22
  call void @llvm.lifetime.end.p0(i64 8, ptr %7) #11
  call void @llvm.lifetime.end.p0(i64 8, ptr %6) #11
  %34 = load i32, ptr %3, align 4
  ret i32 %34
}